; Function Attrs: nounwind uwtable
define range(i32 -1, 1) i32 @H5C_log_write_destroy_cache_msg(ptr nocapture noundef readonly %0) local_unnamed_addr #0 {
  %2 = getelementptr inbounds i8, ptr %0, i64 8
  %3 = load ptr, ptr %2, align 8
  %4 = getelementptr inbounds i8, ptr %3, i64 8
  %5 = load ptr, ptr %4, align 8
  %6 = getelementptr inbounds i8, ptr %5, i64 56
  %7 = load ptr, ptr %6, align 8
  %.not = icmp eq ptr %7, null
  br i1 %.not, label %17, label %8

8:                                                ; preds = %1
  %9 = getelementptr inbounds i8, ptr %3, i64 16
  %10 = load ptr, ptr %9, align 8
  %11 = tail call i32 %7(ptr noundef %10) #3
  %12 = icmp slt i32 %11, 0
  br i1 %12, label %13, label %17

13:                                               ; preds = %8
  %14 = load i64, ptr @H5E_CACHE_g, align 8
  %15 = load i64, ptr @H5E_LOGGING_g, align 8
  %16 = tail call i32 (ptr, ptr, i32, i64, i64, ptr, ...) @H5E_printf_stack(ptr noundef nonnull @.str, ptr noundef nonnull @__func__.H5C_log_write_destroy_cache_msg, i32 noundef 326, i64 noundef %14, i64 noundef %15, ptr noundef nonnull @.str.15) #3
  br label %17

17:                                               ; preds = %1, %8, %13
  %.0 = phi i32 [ -1, %13 ], [ 0, %8 ], [ 0, %1 ]
  ret i32 %.0
}